; ModuleID = 'source-C-CXX/49/1710.c'
source_filename = "source-C-CXX/49/1710.c"
target datalayout = "e-m:e-p270:32:32-p271:32:32-p272:64:64-i64:64-f80:128-n8:16:32:64-S128"
target triple = "x86_64-pc-linux-gnu"

@.str = private unnamed_addr constant [3 x i8] c"%d\00", align 1
@.str.1 = private unnamed_addr constant [4 x i8] c"%d\0A\00", align 1

; Function Attrs: nofree nounwind sspstrong uwtable
define dso_local i32 @main() local_unnamed_addr #0 {
  %1 = alloca i32, align 4
  %2 = bitcast i32* %1 to i8*
  call void @llvm.lifetime.start.p0i8(i64 4, i8* nonnull %2) #3
  %3 = call i32 (i8*, ...) @__isoc99_scanf(i8* getelementptr inbounds ([3 x i8], [3 x i8]* @.str, i64 0, i64 0), i32* nonnull %1)
  %4 = load i32, i32* %1, align 4, !tbaa !5
  switch i32 %4, label %8 [
    i32 0, label %5
    i32 7, label %5
  ]

5:                                                ; preds = %0, %0
  %6 = call i32 (i8*, ...) @printf(i8* nonnull dereferenceable(1) getelementptr inbounds ([4 x i8], [4 x i8]* @.str.1, i64 0, i64 0), i32 1)
  %7 = load i32, i32* %1, align 4, !tbaa !5
  br label %8

8:                                                ; preds = %0, %5
  %9 = phi i32 [ %4, %0 ], [ %7, %5 ]
  switch i32 %9, label %12 [
    i32 4, label %10
    i32 11, label %10
  ]

10:                                               ; preds = %8, %8
  %11 = call i32 (i8*, ...) @printf(i8* nonnull dereferenceable(1) getelementptr inbounds ([4 x i8], [4 x i8]* @.str.1, i64 0, i64 0), i32 2)
  br label %12

12:                                               ; preds = %10, %8
  br label %13

13:                                               ; preds = %12, %41
  %14 = phi i32 [ %42, %41 ], [ 71, %12 ]
  %15 = phi i32 [ %43, %41 ], [ 3, %12 ]
  %16 = and i32 %15, 2147483645
  %17 = and i32 %15, 2147483641
  %18 = icmp eq i32 %17, 1
  %19 = icmp eq i32 %16, 8
  %20 = or i1 %19, %18
  %21 = icmp eq i32 %15, 12
  %22 = select i1 %20, i1 true, i1 %21
  br i1 %22, label %23, label %31

23:                                               ; preds = %13
  %24 = srem i32 %14, 7
  %25 = load i32, i32* %1, align 4, !tbaa !5
  %26 = add nsw i32 %25, %24
  switch i32 %26, label %29 [
    i32 5, label %27
    i32 12, label %27
  ]

27:                                               ; preds = %23, %23
  %28 = call i32 (i8*, ...) @printf(i8* nonnull dereferenceable(1) getelementptr inbounds ([4 x i8], [4 x i8]* @.str.1, i64 0, i64 0), i32 %15)
  br label %29

29:                                               ; preds = %23, %27
  %30 = add nsw i32 %14, 31
  br label %31

31:                                               ; preds = %13, %29
  %32 = phi i32 [ %30, %29 ], [ %14, %13 ]
  switch i32 %16, label %41 [
    i32 9, label %33
    i32 4, label %33
  ]

33:                                               ; preds = %31, %31
  %34 = srem i32 %32, 7
  %35 = load i32, i32* %1, align 4, !tbaa !5
  %36 = add nsw i32 %35, %34
  switch i32 %36, label %39 [
    i32 5, label %37
    i32 12, label %37
  ]

37:                                               ; preds = %33, %33
  %38 = call i32 (i8*, ...) @printf(i8* nonnull dereferenceable(1) getelementptr inbounds ([4 x i8], [4 x i8]* @.str.1, i64 0, i64 0), i32 %15)
  br label %39

39:                                               ; preds = %37, %33
  %40 = add nsw i32 %32, 30
  br label %41

41:                                               ; preds = %31, %39
  %42 = phi i32 [ %40, %39 ], [ %32, %31 ]
  %43 = add nuw nsw i32 %15, 1
  %44 = icmp eq i32 %43, 13
  br i1 %44, label %45, label %13, !llvm.loop !9

45:                                               ; preds = %41
  call void @llvm.lifetime.end.p0i8(i64 4, i8* nonnull %2) #3
  ret i32 0
}

; Function Attrs: argmemonly mustprogress nofree nosync nounwind willreturn
declare void @llvm.lifetime.start.p0i8(i64 immarg, i8* nocapture) #1

; Function Attrs: nofree nounwind
declare noundef i32 @__isoc99_scanf(i8* nocapture noundef readonly, ...) local_unnamed_addr #2

; Function Attrs: nofree nounwind
declare noundef i32 @printf(i8* nocapture noundef readonly, ...) local_unnamed_addr #2

; Function Attrs: argmemonly mustprogress nofree nosync nounwind willreturn
declare void @llvm.lifetime.end.p0i8(i64 immarg, i8* nocapture) #1


!llvm.module.flags = !{!0, !1, !2, !3}
!llvm.ident = !{!4}

!0 = !{i32 1, !"wchar_size", i32 4}
!1 = !{i32 7, !"PIC Level", i32 2}
!2 = !{i32 7, !"PIE Level", i32 2}
!3 = !{i32 7, !"uwtable", i32 1}
!4 = !{!"clang version 13.0.0"}
!5 = !{!6, !6, i64 0}
!6 = !{!"int", !7, i64 0}
!7 = !{!"omnipotent char", !8, i64 0}
!8 = !{!"Simple C/C++ TBAA"}
!9 = distinct !{!9, !10, !11}
!10 = !{!"llvm.loop.mustprogress"}
!11 = !{!"llvm.loop.peeled.count", i32 2}
